Certificate:
    Data:
        Version: 3 (0x2)
        Serial Number:
            58:08:5c:89:0f:91:4d:a9:1e:2f:56:b9:d5:96:f8:98
        Signature Algorithm: ecdsa-with-SHA256
        Issuer: C=CN, O=byd, CN=Sub CA
        Validity
            Not Before: May 17 03:56:35 2024 GMT
            Not After : May 17 03:56:35 2025 GMT
        Subject: C=CN, O=byd, CN=client/emailAddress=sec@byd.com
        Subject Public Key Info:
            Public Key Algorithm: id-ecPublicKey
                Public-Key: (256 bit)
                pub:
                    04:ed:20:e9:1f:24:b8:02:db:4a:e0:36:85:d2:21:
                    c1:83:80:6f:a3:4c:0c:3d:95:40:f6:5a:f8:8c:1b:
                    00:7e:d0:c6:21:d5:c7:f3:2e:f6:8d:9d:e4:f7:9b:
                    a5:93:39:4a:3b:50:4e:38:bc:a1:db:e7:a3:90:c8:
                    0d:16:ac:df:dd
                ASN1 OID: prime256v1
                NIST CURVE: P-256
        X509v3 extensions:
            Authority Information Access: 
                CA Issuers - URI:http://sub-ca.example.com/sub-ca.crt
                OCSP - URI:http://ocsp.sub-ca.example.com:9081

            X509v3 Authority Key Identifier: 
                keyid:97:11:92:8B:68:DC:6B:A2:68:74:34:CC:05:52:25:C2:53:1C:D3:86

            X509v3 Basic Constraints: critical
                CA:FALSE
            X509v3 CRL Distribution Points: 

                Full Name:
                  URI:http://sub-ca.example.com/sub-ca.crl

            X509v3 Extended Key Usage: 
                TLS Web Client Authentication
            X509v3 Key Usage: critical
                Digital Signature
            X509v3 Subject Key Identifier: 
                A9:11:A2:AC:A0:02:01:FF:59:44:09:60:C9:F4:5B:5C:64:1E:EC:9B
    Signature Algorithm: ecdsa-with-SHA256
         30:45:02:21:00:f5:22:bf:55:77:af:0b:81:a3:dc:5d:05:51:
         2e:58:a6:fd:c0:03:4a:68:82:a4:bd:62:45:ed:c3:c8:f7:47:
         f1:02:20:41:b3:d9:d3:13:7f:42:0a:be:17:6c:a0:9f:65:8e:
         fa:3d:40:2c:4c:ef:ff:71:d8:b7:71:45:88:71:05:53:47
-----BEGIN CERTIFICATE-----
MIIClTCCAjugAwIBAgIQWAhciQ+RTakeL1a51Zb4mDAKBggqhkjOPQQDAjAsMQsw
CQYDVQQGEwJDTjEMMAoGA1UECgwDYnlkMQ8wDQYDVQQDDAZTdWIgQ0EwHhcNMjQw
NTE3MDM1NjM1WhcNMjUwNTE3MDM1NjM1WjBIMQswCQYDVQQGEwJDTjEMMAoGA1UE
CgwDYnlkMQ8wDQYDVQQDDAZjbGllbnQxGjAYBgkqhkiG9w0BCQEWC3NlY0BieWQu
Y29tMFkwEwYHKoZIzj0CAQYIKoZIzj0DAQcDQgAE7SDpHyS4AttK4DaF0iHBg4Bv
o0wMPZVA9lr4jBsAftDGIdXH8y72jZ3k95ulkzlKO1BOOLyh2+ejkMgNFqzf3aOC
ASEwggEdMHEGCCsGAQUFBwEBBGUwYzAwBggrBgEFBQcwAoYkaHR0cDovL3N1Yi1j
YS5leGFtcGxlLmNvbS9zdWItY2EuY3J0MC8GCCsGAQUFBzABhiNodHRwOi8vb2Nz
cC5zdWItY2EuZXhhbXBsZS5jb206OTA4MTAfBgNVHSMEGDAWgBSXEZKLaNxromh0
NMwFUiXCUxzThjAMBgNVHRMBAf8EAjAAMDUGA1UdHwQuMCwwKqAooCaGJGh0dHA6
Ly9zdWItY2EuZXhhbXBsZS5jb20vc3ViLWNhLmNybDATBgNVHSUEDDAKBggrBgEF
BQcDAjAOBgNVHQ8BAf8EBAMCB4AwHQYDVR0OBBYEFKkRoqygAgH/WUQJYMn0W1xk
HuybMAoGCCqGSM49BAMCA0gAMEUCIQD1Ir9Vd68LgaPcXQVRLlim/cADSmiCpL1i
Re3DyPdH8QIgQbPZ0xN/Qgq+F2ygn2WO+j1ALEzv/3HYt3FFiHEFU0c=
-----END CERTIFICATE-----
