Certificate:
    Data:
        Version: 3 (0x2)
        Serial Number:
            02:0a:5c:3b:8d:c0:82:62:db:a5:ca:5e:92:4a:45:d2
        Signature Algorithm: sha256WithRSAEncryption
        Issuer: C=CN, O=byd, CN=Sub CA
        Validity
            Not Before: May  5 11:50:25 2024 GMT
            Not After : May  5 11:50:25 2025 GMT
        Subject: C=CN, O=byd, CN=client/emailAddress=sec@byd.com
        Subject Public Key Info:
            Public Key Algorithm: rsaEncryption
                RSA Public-Key: (2048 bit)
                Modulus:
                    00:f9:58:c3:2d:58:15:0c:3a:4d:d3:ec:48:2b:af:
                    7f:ce:ea:d2:e1:fc:ec:9a:73:d8:61:54:11:a3:2a:
                    fd:a8:00:d8:ec:58:ed:47:e0:57:44:09:bd:c7:00:
                    4f:be:fd:a3:84:dd:95:05:b6:39:13:f0:d1:a4:2a:
                    94:50:2e:24:d5:77:4e:cd:16:90:99:87:e8:24:fb:
                    19:c0:95:87:bd:60:13:42:8b:b8:84:c2:4e:75:67:
                    59:a2:fe:42:61:69:ea:cb:17:17:3e:5c:01:bf:30:
                    aa:04:5c:e1:61:98:87:a0:81:73:f8:04:33:10:05:
                    85:3f:7d:ed:a9:43:94:53:be:e2:c4:fb:f6:4d:46:
                    0c:b1:3b:a8:ab:4c:7c:8c:71:f8:d7:c2:71:fa:e2:
                    17:50:15:d0:84:bd:bb:dd:ef:78:67:84:54:4f:49:
                    25:eb:e2:37:5e:98:b5:f8:7c:22:3d:23:98:1f:e4:
                    43:3f:f3:3d:b8:85:f4:da:58:65:bd:68:88:e1:4c:
                    13:14:f4:6f:2e:68:b5:cf:a6:cd:83:1f:d9:f5:eb:
                    c8:48:61:34:81:30:7f:c5:d2:66:29:43:6d:c5:d2:
                    76:3e:92:38:f8:22:a5:fe:9d:b0:e0:4d:bd:d7:6d:
                    c5:8e:fa:c7:c8:7f:b6:f1:76:3d:00:07:ef:72:3e:
                    22:01
                Exponent: 65537 (0x10001)
        X509v3 extensions:
            Authority Information Access: 
                CA Issuers - URI:http://sub-ca.example.com/sub-ca.crt
                OCSP - URI:http://ocsp.sub-ca.example.com:9081

            X509v3 Authority Key Identifier: 
                keyid:E6:2C:9E:A6:FB:7C:B1:9D:E9:98:C6:E4:1D:85:41:80:A3:05:B6:72

            X509v3 Basic Constraints: critical
                CA:FALSE
            X509v3 CRL Distribution Points: 

                Full Name:
                  URI:http://sub-ca.example.com/sub-ca.crl

            X509v3 Extended Key Usage: 
                TLS Web Client Authentication
            X509v3 Key Usage: critical
                Digital Signature
            X509v3 Subject Key Identifier: 
                DE:1A:B7:CA:CB:6D:B9:92:19:D0:72:C9:75:17:12:0E:FC:9A:49:DD
    Signature Algorithm: sha256WithRSAEncryption
         1d:79:3c:2c:cb:f6:c7:84:f6:34:c6:de:90:a3:e5:cc:9b:95:
         72:eb:f1:5c:53:7c:02:7c:08:06:97:c7:1e:96:47:8f:8e:98:
         98:b6:ff:0d:ac:92:74:4f:73:f5:78:da:3c:74:a3:7e:49:fa:
         94:d5:26:a7:7d:c8:a2:e4:61:88:f8:16:2f:25:f9:cc:4c:34:
         f9:5a:de:98:f9:35:95:e9:cd:73:c7:27:62:27:ab:d2:e9:93:
         81:7e:3c:ab:a0:f4:d0:89:3d:fd:84:43:0a:04:7f:d6:e6:32:
         66:9b:a9:e3:fd:1d:70:e2:4f:0b:71:8c:e2:7a:f4:64:3e:dd:
         6f:a8:0b:ee:ca:d3:c1:6a:f2:cf:b6:30:16:61:68:1a:38:0b:
         e2:c8:1c:bc:a2:51:b5:34:e9:4c:57:78:ee:11:58:36:51:86:
         5f:fe:01:18:e9:63:ad:84:60:c1:a3:ed:3d:ac:3e:63:0e:e9:
         93:df:50:b8:15:fd:d4:66:85:db:01:c7:51:ea:fc:65:c7:8f:
         a3:08:a5:cc:d5:9b:9d:37:b5:86:d4:b0:04:38:d6:55:4e:ee:
         ed:e4:dc:94:a8:36:53:be:dc:64:8b:eb:87:ed:ec:b4:02:b4:
         b4:67:c9:1d:d8:7f:48:ff:01:a4:a6:57:ca:c9:64:f4:63:5c:
         45:f0:d9:a8
-----BEGIN CERTIFICATE-----
MIIEITCCAwmgAwIBAgIQAgpcO43AgmLbpcpekkpF0jANBgkqhkiG9w0BAQsFADAs
MQswCQYDVQQGEwJDTjEMMAoGA1UECgwDYnlkMQ8wDQYDVQQDDAZTdWIgQ0EwHhcN
MjQwNTA1MTE1MDI1WhcNMjUwNTA1MTE1MDI1WjBIMQswCQYDVQQGEwJDTjEMMAoG
A1UECgwDYnlkMQ8wDQYDVQQDDAZjbGllbnQxGjAYBgkqhkiG9w0BCQEWC3NlY0Bi
eWQuY29tMIIBIjANBgkqhkiG9w0BAQEFAAOCAQ8AMIIBCgKCAQEA+VjDLVgVDDpN
0+xIK69/zurS4fzsmnPYYVQRoyr9qADY7FjtR+BXRAm9xwBPvv2jhN2VBbY5E/DR
pCqUUC4k1XdOzRaQmYfoJPsZwJWHvWATQou4hMJOdWdZov5CYWnqyxcXPlwBvzCq
BFzhYZiHoIFz+AQzEAWFP33tqUOUU77ixPv2TUYMsTuoq0x8jHH418Jx+uIXUBXQ
hL273e94Z4RUT0kl6+I3Xpi1+HwiPSOYH+RDP/M9uIX02lhlvWiI4UwTFPRvLmi1
z6bNgx/Z9evISGE0gTB/xdJmKUNtxdJ2PpI4+CKl/p2w4E29123FjvrHyH+28XY9
AAfvcj4iAQIDAQABo4IBITCCAR0wcQYIKwYBBQUHAQEEZTBjMDAGCCsGAQUFBzAC
hiRodHRwOi8vc3ViLWNhLmV4YW1wbGUuY29tL3N1Yi1jYS5jcnQwLwYIKwYBBQUH
MAGGI2h0dHA6Ly9vY3NwLnN1Yi1jYS5leGFtcGxlLmNvbTo5MDgxMB8GA1UdIwQY
MBaAFOYsnqb7fLGd6ZjG5B2FQYCjBbZyMAwGA1UdEwEB/wQCMAAwNQYDVR0fBC4w
LDAqoCigJoYkaHR0cDovL3N1Yi1jYS5leGFtcGxlLmNvbS9zdWItY2EuY3JsMBMG
A1UdJQQMMAoGCCsGAQUFBwMCMA4GA1UdDwEB/wQEAwIHgDAdBgNVHQ4EFgQU3hq3
ysttuZIZ0HLJdRcSDvyaSd0wDQYJKoZIhvcNAQELBQADggEBAB15PCzL9seE9jTG
3pCj5cyblXLr8VxTfAJ8CAaXxx6WR4+OmJi2/w2sknRPc/V42jx0o35J+pTVJqd9
yKLkYYj4Fi8l+cxMNPla3pj5NZXpzXPHJ2Inq9Lpk4F+PKug9NCJPf2EQwoEf9bm
MmabqeP9HXDiTwtxjOJ69GQ+3W+oC+7K08Fq8s+2MBZhaBo4C+LIHLyiUbU06UxX
eO4RWDZRhl/+ARjpY62EYMGj7T2sPmMO6ZPfULgV/dRmhdsBx1Hq/GXHj6MIpczV
m503tYbUsAQ41lVO7u3k3JSoNlO+3GSL64ft7LQCtLRnyR3Yf0j/AaSmV8rJZPRj
XEXw2ag=
-----END CERTIFICATE-----
