Certificate:
    Data:
        Version: 3 (0x2)
        Serial Number:
            9f:7d:ab:6c:07:97:b7:9e:27:e5:3a:f2:0a:11:e7:b7
        Signature Algorithm: sha256WithRSAEncryption
        Issuer: C=CN, O=byd, CN=Root CA
        Validity
            Not Before: May  5 11:45:46 2024 GMT
            Not After : May  3 11:45:46 2034 GMT
        Subject: C=CN, O=byd, CN=Root CA
        Subject Public Key Info:
            Public Key Algorithm: rsaEncryption
                RSA Public-Key: (4096 bit)
                Modulus:
                    00:c7:e9:ea:06:7c:80:fe:01:e9:80:a8:35:68:b3:
                    d4:5a:c1:2c:cb:9d:ec:3a:cc:82:bd:2b:42:f1:0f:
                    2c:1b:04:e5:90:08:f8:8b:cc:d8:a7:dd:18:a9:e7:
                    dd:77:29:6a:f7:0d:c9:8f:91:71:32:0c:91:37:90:
                    c6:aa:ba:c2:2d:a9:23:02:9b:56:bf:53:5d:9f:ea:
                    6c:d9:e0:02:90:99:82:aa:e0:95:87:b4:9a:84:30:
                    d6:fb:ea:74:b0:e6:0d:2c:03:d8:1b:5f:8c:b3:ea:
                    06:8c:5f:02:44:0a:ee:97:4f:2e:b3:a8:96:16:8f:
                    7c:64:18:73:70:3f:89:b8:c1:33:69:75:0e:ab:87:
                    a2:eb:ec:2f:e4:4a:e1:92:2c:93:50:47:4a:23:47:
                    69:e4:aa:2a:2b:30:53:9b:e1:08:11:ad:82:b2:51:
                    90:2f:17:15:37:ae:cd:5e:a7:1f:e8:6e:82:77:b6:
                    06:80:e9:f4:8f:c5:c7:9c:46:f6:d7:5f:02:ad:3a:
                    35:2c:5a:57:3e:f0:8a:06:dd:a8:6c:85:7c:f2:3f:
                    da:83:fa:b4:f5:9c:73:f8:28:5f:26:93:75:c8:2e:
                    00:40:69:8e:a2:3c:0d:89:23:b4:d4:bf:3a:99:18:
                    43:ee:84:78:59:8a:dd:0c:1d:aa:72:6a:09:fb:02:
                    b5:77:6e:75:39:11:03:bf:b7:5f:31:85:a7:66:b7:
                    52:59:b3:46:57:2a:c1:29:ca:cf:ca:da:7e:59:44:
                    c2:58:0a:c8:04:08:d7:0f:cb:42:0a:8e:4d:ef:7c:
                    54:63:ff:d0:75:7a:98:74:3d:e4:42:be:38:35:c0:
                    41:59:34:52:ea:81:59:ea:ad:b0:aa:e9:c1:93:59:
                    de:f4:8f:a4:40:18:2f:f4:e1:67:bb:31:0c:13:03:
                    fe:81:fe:11:7f:68:0a:d4:22:a1:e8:bc:6b:28:12:
                    87:c9:ed:e8:9d:86:e8:a3:ba:0a:03:0f:aa:b3:72:
                    5d:02:0a:eb:76:e8:89:64:f4:fb:41:42:ac:b0:47:
                    9e:9a:cf:1d:44:a2:78:75:e0:80:51:6a:6d:73:79:
                    9d:a7:5c:48:b7:e5:d3:82:ea:2d:04:d8:4e:c5:2b:
                    29:79:54:db:d6:0e:74:6d:6b:54:da:86:9e:79:2b:
                    af:6a:22:a0:ec:85:82:66:46:a8:b5:c6:a4:ac:7c:
                    d0:98:53:7f:09:e9:80:22:a5:65:92:ae:42:ad:19:
                    6f:d4:74:18:14:28:19:d8:d4:83:0b:af:e2:8e:ac:
                    b6:f9:0d:17:d5:51:d8:de:39:e6:52:3a:d5:c4:b8:
                    21:53:22:68:5f:3a:a0:bd:b4:ec:e0:fc:2f:f3:33:
                    1f:78:c1
                Exponent: 65537 (0x10001)
        X509v3 extensions:
            X509v3 Basic Constraints: critical
                CA:TRUE
            X509v3 Key Usage: critical
                Certificate Sign, CRL Sign
            X509v3 Subject Key Identifier: 
                88:99:BB:FB:86:E0:15:DD:67:76:CF:5E:BF:1B:57:2F:A9:8B:DD:4D
    Signature Algorithm: sha256WithRSAEncryption
         82:e0:7f:75:c8:bd:62:42:7a:18:79:17:e8:d0:42:7b:e0:3c:
         8b:13:77:1c:15:64:7f:f5:e1:f3:a5:89:0d:2c:b7:55:8b:7d:
         7d:b9:11:04:e3:75:69:2e:2e:6c:e7:15:a8:60:8b:05:ad:df:
         23:9a:a2:33:05:af:bd:fd:87:58:61:93:9f:64:da:9b:6e:b7:
         c2:13:a7:22:49:2c:69:c8:d6:f5:19:4a:07:7c:3d:64:38:86:
         5b:dd:e0:07:95:b1:b4:30:9b:6b:2b:8b:40:45:03:5c:46:e5:
         fd:a3:fb:5f:5d:bd:7e:1d:e9:e8:a2:ee:76:f8:49:00:78:15:
         c4:2d:b3:ec:b3:f6:50:08:d5:d4:71:8e:60:74:3c:61:96:d3:
         ff:a8:59:66:b8:eb:ce:bf:ff:18:14:c4:64:40:67:fc:2b:22:
         ea:d7:5e:15:3f:d0:8c:98:2d:dc:1e:65:6c:74:ac:59:3c:e3:
         dd:30:f4:2d:2c:65:96:65:ea:30:44:8b:a5:56:34:b5:21:31:
         48:e9:50:a6:92:8f:0f:27:80:f8:82:3b:aa:e7:54:3e:d9:3a:
         06:7b:15:ae:e7:c1:a5:44:8f:d5:c3:00:73:1a:f3:9b:f5:25:
         a3:56:6e:f2:7d:da:d8:bc:99:00:a3:f6:93:37:27:75:a2:00:
         90:17:8d:d0:39:33:5f:0c:37:da:6c:fc:d6:1c:63:d9:5f:79:
         f3:a0:af:b2:4f:69:ec:ac:db:bc:4d:9c:52:c3:a4:43:0d:5e:
         01:7a:24:0b:e0:aa:2e:34:b3:c2:0c:01:f8:cd:2f:0c:da:60:
         dc:a8:61:b4:db:51:ba:e8:30:3f:0f:69:e8:4b:c4:dd:84:3c:
         e9:15:5f:fe:59:09:55:14:d0:35:73:f5:2c:9d:2f:37:7b:82:
         7b:20:f2:b5:ea:8c:e8:3a:91:31:0c:ac:9a:8d:98:32:6c:a1:
         1b:17:12:dc:3a:fe:4b:e9:de:ba:ff:43:8d:9c:4b:7e:d3:3f:
         26:45:1c:50:a6:d1:2c:52:5c:6f:35:e8:2c:38:ec:09:6d:db:
         67:f2:44:86:1b:15:e4:4f:bc:fb:bc:65:a8:25:16:7d:1d:28:
         e4:99:a7:2b:d7:c2:3a:7b:94:b7:60:c2:85:6f:95:ab:4f:2d:
         79:03:38:92:84:df:c5:83:4d:84:91:a0:ad:02:51:82:2f:9b:
         f6:4f:f1:fd:6d:ed:88:30:34:9c:cb:82:90:53:fd:ee:2c:ad:
         66:a0:65:e6:99:97:bb:9e:e3:48:22:9c:3a:59:2e:53:d3:3e:
         6b:78:a5:a0:4b:8c:5c:37:c6:9c:de:59:0d:3c:dd:3b:1a:90:
         c8:fe:1a:63:98:58:20:ce
-----BEGIN CERTIFICATE-----
MIIFJzCCAw+gAwIBAgIRAJ99q2wHl7eeJ+U68goR57cwDQYJKoZIhvcNAQELBQAw
LTELMAkGA1UEBhMCQ04xDDAKBgNVBAoMA2J5ZDEQMA4GA1UEAwwHUm9vdCBDQTAe
Fw0yNDA1MDUxMTQ1NDZaFw0zNDA1MDMxMTQ1NDZaMC0xCzAJBgNVBAYTAkNOMQww
CgYDVQQKDANieWQxEDAOBgNVBAMMB1Jvb3QgQ0EwggIiMA0GCSqGSIb3DQEBAQUA
A4ICDwAwggIKAoICAQDH6eoGfID+AemAqDVos9RawSzLnew6zIK9K0LxDywbBOWQ
CPiLzNin3Rip5913KWr3DcmPkXEyDJE3kMaqusItqSMCm1a/U12f6mzZ4AKQmYKq
4JWHtJqEMNb76nSw5g0sA9gbX4yz6gaMXwJECu6XTy6zqJYWj3xkGHNwP4m4wTNp
dQ6rh6Lr7C/kSuGSLJNQR0ojR2nkqiorMFOb4QgRrYKyUZAvFxU3rs1epx/oboJ3
tgaA6fSPxcecRvbXXwKtOjUsWlc+8IoG3ahshXzyP9qD+rT1nHP4KF8mk3XILgBA
aY6iPA2JI7TUvzqZGEPuhHhZit0MHapyagn7ArV3bnU5EQO/t18xhadmt1JZs0ZX
KsEpys/K2n5ZRMJYCsgECNcPy0IKjk3vfFRj/9B1eph0PeRCvjg1wEFZNFLqgVnq
rbCq6cGTWd70j6RAGC/04We7MQwTA/6B/hF/aArUIqHovGsoEofJ7eidhuijugoD
D6qzcl0CCut26Ilk9PtBQqywR56azx1Eonh14IBRam1zeZ2nXEi35dOC6i0E2E7F
Kyl5VNvWDnRta1Tahp55K69qIqDshYJmRqi1xqSsfNCYU38J6YAipWWSrkKtGW/U
dBgUKBnY1IMLr+KOrLb5DRfVUdjeOeZSOtXEuCFTImhfOqC9tOzg/C/zMx94wQID
AQABo0IwQDAPBgNVHRMBAf8EBTADAQH/MA4GA1UdDwEB/wQEAwIBBjAdBgNVHQ4E
FgQUiJm7+4bgFd1nds9evxtXL6mL3U0wDQYJKoZIhvcNAQELBQADggIBAILgf3XI
vWJCehh5F+jQQnvgPIsTdxwVZH/14fOliQ0st1WLfX25EQTjdWkuLmznFahgiwWt
3yOaojMFr739h1hhk59k2ptut8ITpyJJLGnI1vUZSgd8PWQ4hlvd4AeVsbQwm2sr
i0BFA1xG5f2j+19dvX4d6eii7nb4SQB4FcQts+yz9lAI1dRxjmB0PGGW0/+oWWa4
686//xgUxGRAZ/wrIurXXhU/0IyYLdweZWx0rFk8490w9C0sZZZl6jBEi6VWNLUh
MUjpUKaSjw8ngPiCO6rnVD7ZOgZ7Fa7nwaVEj9XDAHMa85v1JaNWbvJ92ti8mQCj
9pM3J3WiAJAXjdA5M18MN9ps/NYcY9lfefOgr7JPaeys27xNnFLDpEMNXgF6JAvg
qi40s8IMAfjNLwzaYNyoYbTbUbroMD8PaehLxN2EPOkVX/5ZCVUU0DVz9SydLzd7
gnsg8rXqjOg6kTEMrJqNmDJsoRsXEtw6/kvp3rr/Q42cS37TPyZFHFCm0SxSXG81
6Cw47Alt22fyRIYbFeRPvPu8ZaglFn0dKOSZpyvXwjp7lLdgwoVvlatPLXkDOJKE
38WDTYSRoK0CUYIvm/ZP8f1t7YgwNJzLgpBT/e4srWagZeaZl7ue40ginDpZLlPT
Pmt4paBLjFw3xpzeWQ083TsakMj+GmOYWCDO
-----END CERTIFICATE-----
