Certificate:
    Data:
        Version: 3 (0x2)
        Serial Number:
            02:0a:5c:3b:8d:c0:82:62:db:a5:ca:5e:92:4a:45:d1
        Signature Algorithm: sha256WithRSAEncryption
        Issuer: C=CN, O=byd, CN=Sub CA
        Validity
            Not Before: May  5 11:49:28 2024 GMT
            Not After : May  5 11:49:28 2025 GMT
        Subject: C=CN, O=byd, CN=server/emailAddress=sec@byd.com
        Subject Public Key Info:
            Public Key Algorithm: rsaEncryption
                RSA Public-Key: (2048 bit)
                Modulus:
                    00:f1:28:62:13:51:49:ef:76:51:da:92:4e:80:db:
                    46:8b:85:ed:4c:ed:01:c4:c7:d0:63:31:4a:41:bb:
                    bc:35:ea:4e:8e:94:c6:f6:1c:4b:cf:21:82:2a:c5:
                    42:18:50:cb:2d:ba:38:28:8b:e4:da:81:68:d4:29:
                    25:d2:54:d5:0a:01:6c:53:99:1a:1e:09:e2:17:8f:
                    90:fe:b4:9f:9c:39:49:aa:b6:78:fc:23:ef:74:40:
                    e0:47:27:93:06:71:f1:85:1e:28:45:e5:f0:14:9f:
                    19:e6:1b:57:7f:85:2e:81:de:b9:75:2f:84:1e:2a:
                    79:15:d5:1c:ad:1c:ab:df:bc:0f:fc:4b:73:a6:c0:
                    14:71:ca:96:1c:c4:91:09:b6:bd:00:c2:a3:df:25:
                    f9:c1:74:83:d2:d0:88:1b:dc:90:34:1d:2b:26:6a:
                    88:9c:ff:9b:34:24:35:bc:9d:ce:2f:56:e7:33:6e:
                    c5:44:9d:2d:4b:b7:6c:cd:6e:da:d9:98:b7:7d:70:
                    06:89:d1:1f:98:11:69:a8:96:7e:3c:e5:43:94:49:
                    45:a1:05:1e:72:2d:48:18:5e:e8:78:98:f8:2d:68:
                    ac:88:74:5e:83:f0:de:3d:39:2a:28:85:1f:60:55:
                    b8:b3:40:37:3c:d7:04:3d:db:8d:02:e5:63:71:b5:
                    2d:95
                Exponent: 65537 (0x10001)
        X509v3 extensions:
            Authority Information Access: 
                CA Issuers - URI:http://sub-ca.example.com/sub-ca.crt
                OCSP - URI:http://ocsp.sub-ca.example.com:9081

            X509v3 Authority Key Identifier: 
                keyid:E6:2C:9E:A6:FB:7C:B1:9D:E9:98:C6:E4:1D:85:41:80:A3:05:B6:72

            X509v3 Basic Constraints: critical
                CA:FALSE
            X509v3 CRL Distribution Points: 

                Full Name:
                  URI:http://sub-ca.example.com/sub-ca.crl

            X509v3 Extended Key Usage: 
                TLS Web Client Authentication, TLS Web Server Authentication
            X509v3 Key Usage: critical
                Digital Signature, Key Encipherment
            X509v3 Subject Key Identifier: 
                AE:FA:9B:56:84:A2:70:9A:B6:24:D7:8D:AB:52:E8:C7:E9:69:E9:62
    Signature Algorithm: sha256WithRSAEncryption
         93:6f:69:6b:ee:50:3a:f3:ca:4d:4a:83:88:6e:3a:14:b9:30:
         16:8f:50:3f:96:95:ed:49:0c:48:6a:c1:52:1b:4a:f5:73:61:
         60:df:f5:f3:e3:43:d4:c1:6e:ba:ee:1d:eb:7c:8f:dc:1c:81:
         3b:cb:7a:7f:c9:86:b5:81:0b:54:5c:2a:61:92:22:4a:31:ff:
         25:de:29:3d:7f:10:ae:67:89:a2:5a:23:02:3a:3e:19:11:7e:
         8a:8b:0f:83:e1:2e:17:a3:fa:80:0c:10:47:18:39:d0:1f:03:
         f7:92:e7:d4:33:07:81:71:1f:5a:a0:19:66:f4:40:78:63:80:
         28:2f:08:35:1c:c3:c0:c1:f8:02:ae:96:85:0b:3f:6c:da:0d:
         dc:a6:3b:83:5b:15:a7:20:9a:7f:d9:6f:70:ae:fc:5b:53:15:
         d3:c4:87:85:72:45:5b:0b:d2:13:6f:c4:56:cb:15:9b:2a:f5:
         64:40:77:64:93:bd:3f:46:cc:49:cc:ee:cc:c0:61:eb:23:51:
         79:32:b4:3d:d8:ac:64:2d:0d:1a:dc:76:f2:cb:78:8d:75:d1:
         66:af:4e:f9:29:9c:53:d7:e0:d5:1c:29:1e:b3:a0:bb:0e:23:
         fd:54:e7:b7:96:34:5c:69:55:5d:01:36:29:e3:9e:02:99:4e:
         dd:a1:dd:01
-----BEGIN CERTIFICATE-----
MIIEKzCCAxOgAwIBAgIQAgpcO43AgmLbpcpekkpF0TANBgkqhkiG9w0BAQsFADAs
MQswCQYDVQQGEwJDTjEMMAoGA1UECgwDYnlkMQ8wDQYDVQQDDAZTdWIgQ0EwHhcN
MjQwNTA1MTE0OTI4WhcNMjUwNTA1MTE0OTI4WjBIMQswCQYDVQQGEwJDTjEMMAoG
A1UECgwDYnlkMQ8wDQYDVQQDDAZzZXJ2ZXIxGjAYBgkqhkiG9w0BCQEWC3NlY0Bi
eWQuY29tMIIBIjANBgkqhkiG9w0BAQEFAAOCAQ8AMIIBCgKCAQEA8ShiE1FJ73ZR
2pJOgNtGi4XtTO0BxMfQYzFKQbu8NepOjpTG9hxLzyGCKsVCGFDLLbo4KIvk2oFo
1Ckl0lTVCgFsU5kaHgniF4+Q/rSfnDlJqrZ4/CPvdEDgRyeTBnHxhR4oReXwFJ8Z
5htXf4Uugd65dS+EHip5FdUcrRyr37wP/EtzpsAUccqWHMSRCba9AMKj3yX5wXSD
0tCIG9yQNB0rJmqInP+bNCQ1vJ3OL1bnM27FRJ0tS7dszW7a2Zi3fXAGidEfmBFp
qJZ+POVDlElFoQUeci1IGF7oeJj4LWisiHReg/DePTkqKIUfYFW4s0A3PNcEPduN
AuVjcbUtlQIDAQABo4IBKzCCAScwcQYIKwYBBQUHAQEEZTBjMDAGCCsGAQUFBzAC
hiRodHRwOi8vc3ViLWNhLmV4YW1wbGUuY29tL3N1Yi1jYS5jcnQwLwYIKwYBBQUH
MAGGI2h0dHA6Ly9vY3NwLnN1Yi1jYS5leGFtcGxlLmNvbTo5MDgxMB8GA1UdIwQY
MBaAFOYsnqb7fLGd6ZjG5B2FQYCjBbZyMAwGA1UdEwEB/wQCMAAwNQYDVR0fBC4w
LDAqoCigJoYkaHR0cDovL3N1Yi1jYS5leGFtcGxlLmNvbS9zdWItY2EuY3JsMB0G
A1UdJQQWMBQGCCsGAQUFBwMCBggrBgEFBQcDATAOBgNVHQ8BAf8EBAMCBaAwHQYD
VR0OBBYEFK76m1aEonCatiTXjatS6MfpaeliMA0GCSqGSIb3DQEBCwUAA4IBAQCT
b2lr7lA688pNSoOIbjoUuTAWj1A/lpXtSQxIasFSG0r1c2Fg3/Xz40PUwW667h3r
fI/cHIE7y3p/yYa1gQtUXCphkiJKMf8l3ik9fxCuZ4miWiMCOj4ZEX6Kiw+D4S4X
o/qADBBHGDnQHwP3kufUMweBcR9aoBlm9EB4Y4AoLwg1HMPAwfgCrpaFCz9s2g3c
pjuDWxWnIJp/2W9wrvxbUxXTxIeFckVbC9ITb8RWyxWbKvVkQHdkk70/RsxJzO7M
wGHrI1F5MrQ92KxkLQ0a3Hbyy3iNddFmr075KZxT1+DVHCkes6C7DiP9VOe3ljRc
aVVdATYp454CmU7dod0B
-----END CERTIFICATE-----
