Certificate:
    Data:
        Version: 3 (0x2)
        Serial Number:
            d0:69:12:36:8b:23:8e:62:90:bd:3d:1c:1e:3c:d1:ef
        Signature Algorithm: sha256WithRSAEncryption
        Issuer: C=CN, O=byd, CN=Root CA
        Validity
            Not Before: May 26 05:08:20 2024 GMT
            Not After : May 24 05:08:20 2034 GMT
        Subject: C=CN, O=byd, CN=Root CA
        Subject Public Key Info:
            Public Key Algorithm: rsaEncryption
                RSA Public-Key: (4096 bit)
                Modulus:
                    00:e2:21:d2:68:43:f3:d1:b6:89:50:d5:58:cd:15:
                    0a:0a:c1:fd:a4:81:8c:f8:39:07:95:d5:1a:2c:53:
                    25:52:77:8d:ab:0f:3d:63:4b:ca:3e:ef:0d:fb:6d:
                    0c:dd:90:9b:31:71:b6:35:e4:09:7e:f6:65:5c:45:
                    2f:a0:d0:c7:45:38:05:0e:3b:de:2d:c8:d8:08:7e:
                    d3:ee:2a:99:c0:a0:85:c1:b1:07:2f:48:30:04:65:
                    b6:06:85:8b:1f:46:61:b4:76:90:28:ae:35:5f:9a:
                    3a:5d:ee:94:24:e2:9b:69:ad:5f:55:a7:70:34:5e:
                    5d:f1:c3:88:da:eb:b1:0f:c6:7d:4b:e6:28:24:79:
                    62:c0:38:12:69:1e:a3:f8:dc:1f:e3:89:c0:fe:1b:
                    fc:5a:90:a7:7d:12:6c:62:4b:19:fd:f8:21:0e:0d:
                    c9:60:f5:86:1f:ce:61:7f:54:22:50:33:89:10:c4:
                    28:87:b8:4b:d6:03:39:91:d1:d6:a0:9d:6a:77:7f:
                    93:a4:a8:ec:0f:5d:87:13:63:f6:d8:f9:10:c2:d4:
                    ae:4e:d7:0d:cc:d4:77:d1:84:a6:a0:9b:f9:bc:dd:
                    d1:a1:95:77:de:6c:56:ca:c9:8d:7e:87:91:12:50:
                    3a:95:fe:1c:8d:0d:2a:bb:c5:40:b0:94:ed:42:73:
                    b9:2f:dd:8c:a4:58:09:14:30:bf:f6:ca:f1:c7:9e:
                    4b:da:1e:09:48:3d:e6:c6:ee:30:7a:98:9d:b5:98:
                    42:4f:e9:0b:6c:00:ff:12:8a:7b:44:c3:58:0f:2a:
                    0e:1e:6c:c4:60:42:4e:84:d0:7a:f3:ff:be:26:bd:
                    68:8d:70:91:3e:39:5b:bb:61:b2:a5:95:3a:3b:ba:
                    fa:91:89:e3:2b:5d:a8:2c:c6:b5:d5:5a:9d:e8:83:
                    d0:76:f7:52:38:96:42:e0:2d:d5:c2:10:14:11:25:
                    1b:19:31:1e:2a:4d:59:0c:fc:6f:e8:59:7d:30:6d:
                    63:9f:46:ab:1d:59:ba:0f:7d:4c:21:e1:85:70:39:
                    37:7f:56:24:15:75:55:6b:87:4b:ec:e9:6a:ee:b7:
                    c3:10:75:d9:3e:f4:97:c4:2d:e1:b1:f7:9f:37:ff:
                    a7:64:bf:3c:d4:96:9a:db:32:b0:77:09:9f:1a:d1:
                    d7:b1:1b:9b:d1:44:cc:1f:2d:44:ac:67:9f:55:1e:
                    02:df:d5:25:64:eb:3e:f8:65:d6:56:0c:cc:b9:14:
                    6d:27:7b:a2:64:e9:13:c2:f7:b3:ec:e5:9c:3a:20:
                    a1:d7:89:67:aa:98:38:8c:52:4a:16:90:c6:f9:59:
                    eb:3b:b6:85:80:5d:27:71:0a:6f:3f:81:e4:54:86:
                    df:ad:99
                Exponent: 65537 (0x10001)
        X509v3 extensions:
            X509v3 Basic Constraints: critical
                CA:TRUE
            X509v3 Key Usage: critical
                Certificate Sign, CRL Sign
            X509v3 Subject Key Identifier: 
                D4:13:32:E4:74:D5:90:94:D6:F8:F2:E4:21:91:A3:E0:7E:06:B9:5B
    Signature Algorithm: sha256WithRSAEncryption
         7b:17:c1:84:e0:0c:a0:46:aa:8e:ad:45:0f:49:b5:5f:23:f9:
         24:9a:42:89:9f:f7:b7:1b:0e:96:de:0d:2e:78:b9:7b:d5:b0:
         b9:ba:6c:db:18:9b:db:d4:72:b3:b2:41:2a:44:7d:c5:b4:03:
         4c:ad:23:55:3e:2f:b8:15:f8:0e:ad:c1:91:ef:5f:76:19:ab:
         fa:d4:d5:81:fb:6e:3d:c7:8a:91:6f:1d:3f:db:15:4c:91:cb:
         23:c6:a5:bb:91:fe:6b:0a:a6:1b:d7:fb:f4:8a:1d:6c:4e:e7:
         00:6e:d4:cf:6a:1b:97:2f:fe:6c:98:8a:78:e1:46:f9:4e:e5:
         af:62:f1:ea:5f:b1:77:28:e6:e6:90:ea:1a:34:8e:04:da:9b:
         9d:d3:27:48:64:25:78:0f:17:7f:7a:57:39:a7:a9:c7:cb:a4:
         50:bf:ca:2e:25:b9:a1:23:a3:10:b3:be:ed:93:f6:c6:d4:07:
         44:87:41:51:30:5e:fd:28:4b:5f:98:e4:0c:b0:33:e5:e6:25:
         5f:09:ff:56:51:ef:c2:fa:b7:ed:55:90:30:2f:bb:c0:20:05:
         9c:9a:b1:aa:02:7b:36:1f:17:dc:df:49:cc:0b:35:a6:d8:1f:
         8c:e3:21:74:fa:69:85:fb:73:c6:6b:7b:02:31:18:d7:5e:5c:
         5a:bb:17:d3:10:3f:89:31:e3:82:bc:0b:64:2c:1f:7f:22:75:
         d8:28:3b:20:3b:ba:be:fc:f3:f1:ea:7a:98:dc:f2:cc:1c:fa:
         c2:6b:94:62:3e:f9:5e:ca:53:48:e3:39:91:93:42:c5:65:a8:
         e4:7f:ae:b2:c1:e3:a5:c4:8c:18:b5:65:85:e2:10:38:63:e3:
         3c:cf:51:d4:df:b6:c2:37:3a:53:75:a9:3a:de:a2:a7:c1:47:
         6d:7b:a0:26:cf:45:c4:7f:4d:1b:65:fa:08:e0:2b:e2:23:14:
         27:3f:b5:b1:24:95:02:89:27:5a:ad:4c:1d:97:4b:e3:4f:5d:
         f8:16:31:1c:42:a5:30:25:33:18:74:08:66:e9:16:8f:da:21:
         66:95:5d:84:91:c8:97:dc:ed:4e:0c:0c:f9:ae:ad:e5:4f:0c:
         77:45:47:f4:3b:6e:43:24:c6:c1:52:0f:fa:28:d8:78:8f:4a:
         9b:5b:84:39:15:79:cc:62:2f:5b:f5:39:2d:8d:7f:e2:26:e4:
         5c:2a:e6:70:19:e0:41:c9:28:e8:c5:3e:9f:1e:ff:ed:c5:ad:
         e1:f4:cb:24:51:b8:37:8b:ee:f1:cf:00:26:66:2c:9d:7a:f9:
         a7:9b:c7:f5:72:91:d1:02:d4:ac:f2:0b:ca:84:98:c8:41:d2:
         93:d9:c0:ad:30:ac:46:55
-----BEGIN CERTIFICATE-----
MIIFJzCCAw+gAwIBAgIRANBpEjaLI45ikL09HB480e8wDQYJKoZIhvcNAQELBQAw
LTELMAkGA1UEBhMCQ04xDDAKBgNVBAoMA2J5ZDEQMA4GA1UEAwwHUm9vdCBDQTAe
Fw0yNDA1MjYwNTA4MjBaFw0zNDA1MjQwNTA4MjBaMC0xCzAJBgNVBAYTAkNOMQww
CgYDVQQKDANieWQxEDAOBgNVBAMMB1Jvb3QgQ0EwggIiMA0GCSqGSIb3DQEBAQUA
A4ICDwAwggIKAoICAQDiIdJoQ/PRtolQ1VjNFQoKwf2kgYz4OQeV1RosUyVSd42r
Dz1jS8o+7w37bQzdkJsxcbY15Al+9mVcRS+g0MdFOAUOO94tyNgIftPuKpnAoIXB
sQcvSDAEZbYGhYsfRmG0dpAorjVfmjpd7pQk4ptprV9Vp3A0Xl3xw4ja67EPxn1L
5igkeWLAOBJpHqP43B/jicD+G/xakKd9EmxiSxn9+CEODclg9YYfzmF/VCJQM4kQ
xCiHuEvWAzmR0dagnWp3f5OkqOwPXYcTY/bY+RDC1K5O1w3M1HfRhKagm/m83dGh
lXfebFbKyY1+h5ESUDqV/hyNDSq7xUCwlO1Cc7kv3YykWAkUML/2yvHHnkvaHglI
PebG7jB6mJ21mEJP6QtsAP8SintEw1gPKg4ebMRgQk6E0Hrz/74mvWiNcJE+OVu7
YbKllTo7uvqRieMrXagsxrXVWp3og9B291I4lkLgLdXCEBQRJRsZMR4qTVkM/G/o
WX0wbWOfRqsdWboPfUwh4YVwOTd/ViQVdVVrh0vs6Wrut8MQddk+9JfELeGx9583
/6dkvzzUlprbMrB3CZ8a0dexG5vRRMwfLUSsZ59VHgLf1SVk6z74ZdZWDMy5FG0n
e6Jk6RPC97Ps5Zw6IKHXiWeqmDiMUkoWkMb5Wes7toWAXSdxCm8/geRUht+tmQID
AQABo0IwQDAPBgNVHRMBAf8EBTADAQH/MA4GA1UdDwEB/wQEAwIBBjAdBgNVHQ4E
FgQU1BMy5HTVkJTW+PLkIZGj4H4GuVswDQYJKoZIhvcNAQELBQADggIBAHsXwYTg
DKBGqo6tRQ9JtV8j+SSaQomf97cbDpbeDS54uXvVsLm6bNsYm9vUcrOyQSpEfcW0
A0ytI1U+L7gV+A6twZHvX3YZq/rU1YH7bj3HipFvHT/bFUyRyyPGpbuR/msKphvX
+/SKHWxO5wBu1M9qG5cv/myYinjhRvlO5a9i8epfsXco5uaQ6ho0jgTam53TJ0hk
JXgPF396VzmnqcfLpFC/yi4luaEjoxCzvu2T9sbUB0SHQVEwXv0oS1+Y5AywM+Xm
JV8J/1ZR78L6t+1VkDAvu8AgBZyasaoCezYfF9zfScwLNabYH4zjIXT6aYX7c8Zr
ewIxGNdeXFq7F9MQP4kx44K8C2QsH38iddgoOyA7ur788/Hqepjc8swc+sJrlGI+
+V7KU0jjOZGTQsVlqOR/rrLB46XEjBi1ZYXiEDhj4zzPUdTftsI3OlN1qTreoqfB
R217oCbPRcR/TRtl+gjgK+IjFCc/tbEklQKJJ1qtTB2XS+NPXfgWMRxCpTAlMxh0
CGbpFo/aIWaVXYSRyJfc7U4MDPmureVPDHdFR/Q7bkMkxsFSD/oo2HiPSptbhDkV
ecxiL1v1OS2Nf+Im5Fwq5nAZ4EHJKOjFPp8e/+3FreH0yyRRuDeL7vHPACZmLJ16
+aebx/VykdEC1KzyC8qEmMhB0pPZwK0wrEZV
-----END CERTIFICATE-----
Certificate:
    Data:
        Version: 3 (0x2)
        Serial Number:
            d0:69:12:36:8b:23:8e:62:90:bd:3d:1c:1e:3c:d1:f0
        Signature Algorithm: sha256WithRSAEncryption
        Issuer: C=CN, O=byd, CN=Root CA
        Validity
            Not Before: May 26 05:09:01 2024 GMT
            Not After : May 24 05:09:01 2034 GMT
        Subject: C=CN, O=byd, CN=Sub CA
        Subject Public Key Info:
            Public Key Algorithm: rsaEncryption
                RSA Public-Key: (2048 bit)
                Modulus:
                    00:92:25:ec:51:8b:1e:03:f6:9c:28:72:f6:cb:0f:
                    3d:a9:94:47:68:17:9e:c0:1a:14:7d:76:87:9f:60:
                    b4:62:ec:14:b1:e7:aa:59:80:d8:07:ff:f6:bc:1d:
                    6c:7e:82:a2:75:94:0f:e1:1a:16:9b:aa:15:f4:05:
                    9e:0d:3a:a5:86:67:6c:40:58:7b:14:13:8c:85:65:
                    4f:0a:5e:f9:0f:21:af:89:c2:91:0e:f9:73:d4:b1:
                    50:e5:8c:38:d1:a8:ac:38:f2:35:b1:9d:a6:8b:92:
                    6e:d1:01:66:b2:27:69:05:e5:fb:12:f9:c5:30:3e:
                    e1:3d:d0:2d:ce:36:e5:c9:ab:84:4a:ef:73:94:2a:
                    da:1d:bb:e9:9f:3d:5d:63:fb:a9:71:25:1b:c8:04:
                    85:62:a4:93:31:0e:c2:c9:e0:c6:31:54:48:0e:9f:
                    a7:ab:13:f7:90:ac:b1:7e:c5:51:64:4c:84:20:6e:
                    39:d8:90:e9:a9:34:a0:c9:b7:2c:a3:d5:86:d3:42:
                    20:f3:c5:c5:e7:70:18:15:8c:36:4e:70:05:bb:b1:
                    18:4f:18:28:5e:69:90:56:f2:25:b3:d0:99:c1:9b:
                    7c:66:fc:39:52:69:61:39:0f:e9:2d:7a:fb:a0:b3:
                    3a:6c:8f:00:68:b9:71:85:65:1f:34:f5:05:1f:36:
                    1a:45
                Exponent: 65537 (0x10001)
        X509v3 extensions:
            Authority Information Access: 
                CA Issuers - URI:http://root-ca.example.com/root-ca.crt
                OCSP - URI:http://ocsp.root-ca.example.com:9080

            X509v3 Authority Key Identifier: 
                keyid:D4:13:32:E4:74:D5:90:94:D6:F8:F2:E4:21:91:A3:E0:7E:06:B9:5B

            X509v3 Basic Constraints: critical
                CA:TRUE, pathlen:0
            X509v3 CRL Distribution Points: 

                Full Name:
                  URI:http://root-ca.example.com/root-ca.crl

            X509v3 Extended Key Usage: 
                TLS Web Client Authentication, TLS Web Server Authentication
            X509v3 Key Usage: critical
                Certificate Sign, CRL Sign
            X509v3 Name Constraints: 
                Permitted:
                  DNS:example.com
                  DNS:example.org
                Excluded:
                  IP:0.0.0.0/0.0.0.0
                  IP:0:0:0:0:0:0:0:0/0:0:0:0:0:0:0:0

            X509v3 Subject Key Identifier: 
                40:37:A1:FB:90:DA:A3:9D:BA:4E:55:BE:14:C5:22:29:9E:AB:B9:0A
    Signature Algorithm: sha256WithRSAEncryption
         1c:b4:9a:1e:8d:99:56:1f:1c:53:a9:b0:d6:6c:cf:d5:75:96:
         ed:90:48:08:cc:fb:d7:ec:e7:1e:e4:e3:02:35:e1:d0:6b:4a:
         bb:24:ae:9b:d9:8c:c4:ab:2b:5b:9e:bb:f7:ba:13:4a:4a:00:
         3a:e1:a5:8a:ef:ef:7e:4a:01:b7:32:2f:fb:3f:50:31:de:9e:
         d3:ac:83:8a:06:71:e5:ae:7b:e7:01:5a:0e:1b:01:36:78:4c:
         8d:b0:b5:d9:9a:ef:f8:90:38:bd:ad:a8:a6:16:ff:cc:ac:3a:
         80:94:1d:3a:1f:dc:6b:07:60:f8:db:2d:6f:1f:90:01:56:b3:
         17:84:52:bb:4f:d8:42:3d:41:bc:36:84:c0:6a:de:53:e4:49:
         86:fd:e6:0f:50:e7:49:bb:da:44:ca:92:42:fa:a3:8e:5c:72:
         a7:85:b7:97:8b:97:a6:71:05:e1:83:65:73:4d:47:ce:6d:3d:
         43:b3:cb:b8:87:9f:6d:1a:0b:cf:9f:d5:26:56:ab:aa:50:82:
         ae:e6:17:0c:6e:43:e0:47:84:1f:73:df:fe:75:1e:10:76:30:
         05:34:35:6a:c5:ad:de:59:64:32:44:91:7f:8b:5b:25:49:17:
         53:ca:e8:24:16:a3:2e:87:9e:06:11:ae:a6:d7:65:65:57:64:
         e1:a6:6a:c7:10:83:66:9b:25:13:57:1c:43:a1:53:86:bc:be:
         de:ef:51:5d:d1:fc:7f:0c:e4:22:21:78:0f:8d:15:6d:6f:8e:
         23:bb:02:8d:cd:db:7f:9b:b7:c3:43:b0:3d:d3:a1:31:3e:fb:
         99:d3:31:ad:6c:9e:d8:85:88:58:4b:a6:ba:e5:ca:e1:d4:6e:
         3d:ef:d5:0b:78:5d:c4:6e:42:e6:3a:79:d4:14:9d:02:9d:db:
         ac:90:91:0f:1a:4c:64:48:62:d0:85:3f:11:d6:b8:46:ef:45:
         71:ba:80:2b:59:d6:05:ec:6d:e6:04:6c:95:0a:70:f1:3e:12:
         81:0b:5a:06:34:96:8e:89:77:f0:83:69:81:4b:0d:15:58:da:
         a0:35:9c:c5:72:64:f6:9e:f6:78:f1:f9:1e:d0:b4:7c:0b:9a:
         92:0d:83:58:c1:10:c9:af:f3:c5:37:a5:67:2e:a2:a2:50:d2:
         7c:c9:88:b3:b2:1a:35:af:03:a8:2d:7f:13:07:3b:1e:63:f1:
         1a:cd:20:9c:9a:85:16:0b:8e:c5:d6:eb:75:85:26:75:cc:c7:
         2b:88:29:c5:e9:72:51:e9:70:53:2a:1e:db:aa:ee:53:97:9c:
         39:d3:3f:fe:81:76:cf:7d:8e:a7:b2:8b:01:a8:a3:e2:34:b3:
         86:a1:08:81:cc:85:86:18
-----BEGIN CERTIFICATE-----
MIIFeTCCA2GgAwIBAgIRANBpEjaLI45ikL09HB480fAwDQYJKoZIhvcNAQELBQAw
LTELMAkGA1UEBhMCQ04xDDAKBgNVBAoMA2J5ZDEQMA4GA1UEAwwHUm9vdCBDQTAe
Fw0yNDA1MjYwNTA5MDFaFw0zNDA1MjQwNTA5MDFaMCwxCzAJBgNVBAYTAkNOMQww
CgYDVQQKDANieWQxDzANBgNVBAMMBlN1YiBDQTCCASIwDQYJKoZIhvcNAQEBBQAD
ggEPADCCAQoCggEBAJIl7FGLHgP2nChy9ssPPamUR2gXnsAaFH12h59gtGLsFLHn
qlmA2Af/9rwdbH6ConWUD+EaFpuqFfQFng06pYZnbEBYexQTjIVlTwpe+Q8hr4nC
kQ75c9SxUOWMONGorDjyNbGdpouSbtEBZrInaQXl+xL5xTA+4T3QLc425cmrhErv
c5Qq2h276Z89XWP7qXElG8gEhWKkkzEOwsngxjFUSA6fp6sT95CssX7FUWRMhCBu
OdiQ6ak0oMm3LKPVhtNCIPPFxedwGBWMNk5wBbuxGE8YKF5pkFbyJbPQmcGbfGb8
OVJpYTkP6S16+6CzOmyPAGi5cYVlHzT1BR82GkUCAwEAAaOCAZMwggGPMHQGCCsG
AQUFBwEBBGgwZjAyBggrBgEFBQcwAoYmaHR0cDovL3Jvb3QtY2EuZXhhbXBsZS5j
b20vcm9vdC1jYS5jcnQwMAYIKwYBBQUHMAGGJGh0dHA6Ly9vY3NwLnJvb3QtY2Eu
ZXhhbXBsZS5jb206OTA4MDAfBgNVHSMEGDAWgBTUEzLkdNWQlNb48uQhkaPgfga5
WzASBgNVHRMBAf8ECDAGAQH/AgEAMDcGA1UdHwQwMC4wLKAqoCiGJmh0dHA6Ly9y
b290LWNhLmV4YW1wbGUuY29tL3Jvb3QtY2EuY3JsMB0GA1UdJQQWMBQGCCsGAQUF
BwMCBggrBgEFBQcDATAOBgNVHQ8BAf8EBAMCAQYwWwYDVR0eBFQwUqAeMA2CC2V4
YW1wbGUuY29tMA2CC2V4YW1wbGUub3JnoTAwCocIAAAAAAAAAAAwIocgAAAAAAAA
AAAAAAAAAAAAAAAAAAAAAAAAAAAAAAAAAAAwHQYDVR0OBBYEFEA3ofuQ2qOduk5V
vhTFIimeq7kKMA0GCSqGSIb3DQEBCwUAA4ICAQActJoejZlWHxxTqbDWbM/VdZbt
kEgIzPvX7Oce5OMCNeHQa0q7JK6b2YzEqytbnrv3uhNKSgA64aWK7+9+SgG3Mi/7
P1Ax3p7TrIOKBnHlrnvnAVoOGwE2eEyNsLXZmu/4kDi9raimFv/MrDqAlB06H9xr
B2D42y1vH5ABVrMXhFK7T9hCPUG8NoTAat5T5EmG/eYPUOdJu9pEypJC+qOOXHKn
hbeXi5emcQXhg2VzTUfObT1Ds8u4h59tGgvPn9UmVquqUIKu5hcMbkPgR4Qfc9/+
dR4QdjAFNDVqxa3eWWQyRJF/i1slSRdTyugkFqMuh54GEa6m12VlV2ThpmrHEINm
myUTVxxDoVOGvL7e71Fd0fx/DOQiIXgPjRVtb44juwKNzdt/m7fDQ7A906ExPvuZ
0zGtbJ7YhYhYS6a65crh1G4979ULeF3EbkLmOnnUFJ0CnduskJEPGkxkSGLQhT8R
1rhG70VxuoArWdYF7G3mBGyVCnDxPhKBC1oGNJaOiXfwg2mBSw0VWNqgNZzFcmT2
nvZ48fke0LR8C5qSDYNYwRDJr/PFN6VnLqKiUNJ8yYizsho1rwOoLX8TBzseY/Ea
zSCcmoUWC47F1ut1hSZ1zMcriCnF6XJR6XBTKh7bqu5Tl5w50z/+gXbPfY6nsosB
qKPiNLOGoQiBzIWGGA==
-----END CERTIFICATE-----
