Certificate:
    Data:
        Version: 3 (0x2)
        Serial Number:
            58:08:5c:89:0f:91:4d:a9:1e:2f:56:b9:d5:96:f8:97
        Signature Algorithm: ecdsa-with-SHA256
        Issuer: C=CN, O=byd, CN=Sub CA
        Validity
            Not Before: May 17 03:56:27 2024 GMT
            Not After : May 17 03:56:27 2025 GMT
        Subject: C=CN, O=byd, CN=server/emailAddress=sec@byd.com
        Subject Public Key Info:
            Public Key Algorithm: id-ecPublicKey
                Public-Key: (256 bit)
                pub:
                    04:c1:9e:e0:8f:f6:4e:65:51:a3:c5:01:e5:6c:cb:
                    cc:9a:95:36:48:99:e6:d4:49:1b:08:be:7c:f6:96:
                    02:96:e5:21:b3:02:64:34:83:94:d6:96:6b:ac:62:
                    e5:ee:c6:c2:9a:a2:5f:52:35:20:d2:8c:2a:78:66:
                    e7:f0:1d:2d:37
                ASN1 OID: prime256v1
                NIST CURVE: P-256
        X509v3 extensions:
            Authority Information Access: 
                CA Issuers - URI:http://sub-ca.example.com/sub-ca.crt
                OCSP - URI:http://ocsp.sub-ca.example.com:9081

            X509v3 Authority Key Identifier: 
                keyid:97:11:92:8B:68:DC:6B:A2:68:74:34:CC:05:52:25:C2:53:1C:D3:86

            X509v3 Basic Constraints: critical
                CA:FALSE
            X509v3 CRL Distribution Points: 

                Full Name:
                  URI:http://sub-ca.example.com/sub-ca.crl

            X509v3 Extended Key Usage: 
                TLS Web Client Authentication, TLS Web Server Authentication
            X509v3 Key Usage: critical
                Digital Signature, Key Encipherment
            X509v3 Subject Key Identifier: 
                E9:33:BF:11:FF:C2:6A:85:B1:73:DA:06:E5:06:D3:BD:DD:1E:6B:6E
    Signature Algorithm: ecdsa-with-SHA256
         30:44:02:20:6b:57:9b:e4:65:29:a7:bb:b9:31:27:b7:f6:ad:
         5d:aa:a3:c7:44:e6:44:c7:a1:ed:3c:a8:02:7d:11:0f:eb:a8:
         02:20:13:1d:50:86:a5:f2:db:3d:f7:69:a2:51:cf:6f:28:b7:
         e9:6b:22:73:38:3a:b9:d9:c5:8a:ec:b5:e0:12:69:56
-----BEGIN CERTIFICATE-----
MIICnjCCAkWgAwIBAgIQWAhciQ+RTakeL1a51Zb4lzAKBggqhkjOPQQDAjAsMQsw
CQYDVQQGEwJDTjEMMAoGA1UECgwDYnlkMQ8wDQYDVQQDDAZTdWIgQ0EwHhcNMjQw
NTE3MDM1NjI3WhcNMjUwNTE3MDM1NjI3WjBIMQswCQYDVQQGEwJDTjEMMAoGA1UE
CgwDYnlkMQ8wDQYDVQQDDAZzZXJ2ZXIxGjAYBgkqhkiG9w0BCQEWC3NlY0BieWQu
Y29tMFkwEwYHKoZIzj0CAQYIKoZIzj0DAQcDQgAEwZ7gj/ZOZVGjxQHlbMvMmpU2
SJnm1EkbCL589pYCluUhswJkNIOU1pZrrGLl7sbCmqJfUjUg0owqeGbn8B0tN6OC
ASswggEnMHEGCCsGAQUFBwEBBGUwYzAwBggrBgEFBQcwAoYkaHR0cDovL3N1Yi1j
YS5leGFtcGxlLmNvbS9zdWItY2EuY3J0MC8GCCsGAQUFBzABhiNodHRwOi8vb2Nz
cC5zdWItY2EuZXhhbXBsZS5jb206OTA4MTAfBgNVHSMEGDAWgBSXEZKLaNxromh0
NMwFUiXCUxzThjAMBgNVHRMBAf8EAjAAMDUGA1UdHwQuMCwwKqAooCaGJGh0dHA6
Ly9zdWItY2EuZXhhbXBsZS5jb20vc3ViLWNhLmNybDAdBgNVHSUEFjAUBggrBgEF
BQcDAgYIKwYBBQUHAwEwDgYDVR0PAQH/BAQDAgWgMB0GA1UdDgQWBBTpM78R/8Jq
hbFz2gblBtO93R5rbjAKBggqhkjOPQQDAgNHADBEAiBrV5vkZSmnu7kxJ7f2rV2q
o8dE5kTHoe08qAJ9EQ/rqAIgEx1QhqXy2z33aaJRz28ot+lrInM4OrnZxYrsteAS
aVY=
-----END CERTIFICATE-----
