Certificate:
    Data:
        Version: 3 (0x2)
        Serial Number:
            8a:1b:5e:79:aa:a5:c5:14:50:b9:a0:1b:cb:79:05:ec
        Signature Algorithm: sha256WithRSAEncryption
        Issuer: C=CN, O=byd, CN=Sub CA
        Validity
            Not Before: May 26 05:09:24 2024 GMT
            Not After : May 26 05:09:24 2025 GMT
        Subject: C=CN, O=byd, CN=client/emailAddress=sec@byd.com
        Subject Public Key Info:
            Public Key Algorithm: rsaEncryption
                RSA Public-Key: (2048 bit)
                Modulus:
                    00:e9:6c:ef:49:d9:96:65:ec:7e:b7:6c:38:6f:9d:
                    cc:4d:20:6f:d9:27:d5:fd:a0:84:54:f6:09:d5:e9:
                    93:df:b3:d4:94:92:39:78:cf:51:26:d5:b5:3d:0f:
                    51:ed:7b:b9:d4:f5:08:06:de:49:a4:ed:bb:40:7d:
                    d5:ba:29:1e:37:b6:34:47:4d:cb:d6:95:31:6f:a9:
                    0f:3a:74:28:a7:ef:09:24:2b:b3:0d:0b:d1:67:d5:
                    a7:6d:46:cf:3a:58:90:c2:fe:d2:c0:1b:6a:c0:8e:
                    bb:08:35:22:a8:30:93:66:ab:2a:0d:6b:23:dc:51:
                    46:b2:bb:de:c6:85:69:dd:72:42:0d:2a:c4:1f:8b:
                    b9:e3:6e:09:68:93:a9:00:2f:f3:46:ee:e6:c7:42:
                    d4:63:64:2f:fb:4f:1a:73:56:16:5c:36:48:69:35:
                    c0:a6:eb:f0:74:13:9a:34:f0:e3:5b:d9:ff:6b:db:
                    c0:2a:5e:2e:b8:5c:a7:26:48:b9:cb:78:bd:ad:9c:
                    16:a4:8e:22:30:cd:d5:f4:8a:0f:9c:95:aa:61:84:
                    f0:43:d2:45:d3:8d:b7:90:2f:c2:d8:38:ed:0a:f2:
                    78:9c:ac:59:92:7b:26:48:70:1f:47:5f:1c:1e:49:
                    c3:b8:2c:07:9e:f6:f1:8a:fa:6d:ea:73:ff:3e:89:
                    2d:17
                Exponent: 65537 (0x10001)
        X509v3 extensions:
            Authority Information Access: 
                CA Issuers - URI:http://sub-ca.example.com/sub-ca.crt
                OCSP - URI:http://ocsp.sub-ca.example.com:9081

            X509v3 Authority Key Identifier: 
                keyid:40:37:A1:FB:90:DA:A3:9D:BA:4E:55:BE:14:C5:22:29:9E:AB:B9:0A

            X509v3 Basic Constraints: critical
                CA:FALSE
            X509v3 CRL Distribution Points: 

                Full Name:
                  URI:http://sub-ca.example.com/sub-ca.crl

            X509v3 Extended Key Usage: 
                TLS Web Client Authentication
            X509v3 Key Usage: critical
                Digital Signature
            X509v3 Subject Key Identifier: 
                E2:33:17:46:20:5C:A5:7F:54:E1:E1:F9:DB:DE:16:1A:61:3E:B9:61
    Signature Algorithm: sha256WithRSAEncryption
         81:36:5a:58:fd:09:2e:68:46:53:7c:7e:8c:0c:71:2f:45:77:
         2a:53:fb:62:ac:ec:13:b9:ec:bf:eb:2b:11:f1:e2:c3:c9:8c:
         02:51:2a:44:a2:4c:63:f8:e4:5c:1e:f8:f8:a4:2a:44:48:98:
         4e:f7:f5:81:c1:42:95:93:a3:de:87:31:a7:12:30:6e:16:f9:
         6c:96:b7:a4:7c:35:2d:22:83:a7:3b:a7:69:20:aa:dc:a2:77:
         16:64:3b:3a:eb:db:1c:53:ed:33:7c:8d:84:26:98:06:50:ae:
         2e:2b:57:f9:fc:2d:d8:36:91:ae:1c:27:8f:e2:9a:ac:20:f2:
         81:cf:87:51:53:fe:50:f5:0f:a0:57:26:30:67:92:46:24:3a:
         7b:ff:96:04:99:37:60:9d:47:65:46:0d:d0:9c:bc:2d:41:d4:
         2c:f5:57:1a:66:98:fd:90:c6:e6:23:e4:81:00:a1:f4:17:37:
         23:43:73:d5:41:af:79:94:62:50:1f:d7:aa:19:6c:8d:27:9e:
         d2:cf:9c:83:04:88:f8:67:f2:02:fe:87:b9:5e:77:cd:48:52:
         01:3c:b5:a3:c6:1d:b0:bc:9c:4a:74:42:a2:df:6b:4b:23:25:
         e5:ea:2a:8f:80:3b:dd:b6:b0:04:7d:5a:e8:92:87:8e:4b:73:
         24:39:23:ef
-----BEGIN CERTIFICATE-----
MIIEIjCCAwqgAwIBAgIRAIobXnmqpcUUULmgG8t5BewwDQYJKoZIhvcNAQELBQAw
LDELMAkGA1UEBhMCQ04xDDAKBgNVBAoMA2J5ZDEPMA0GA1UEAwwGU3ViIENBMB4X
DTI0MDUyNjA1MDkyNFoXDTI1MDUyNjA1MDkyNFowSDELMAkGA1UEBhMCQ04xDDAK
BgNVBAoMA2J5ZDEPMA0GA1UEAwwGY2xpZW50MRowGAYJKoZIhvcNAQkBFgtzZWNA
YnlkLmNvbTCCASIwDQYJKoZIhvcNAQEBBQADggEPADCCAQoCggEBAOls70nZlmXs
frdsOG+dzE0gb9kn1f2ghFT2CdXpk9+z1JSSOXjPUSbVtT0PUe17udT1CAbeSaTt
u0B91bopHje2NEdNy9aVMW+pDzp0KKfvCSQrsw0L0WfVp21GzzpYkML+0sAbasCO
uwg1Iqgwk2arKg1rI9xRRrK73saFad1yQg0qxB+LueNuCWiTqQAv80bu5sdC1GNk
L/tPGnNWFlw2SGk1wKbr8HQTmjTw41vZ/2vbwCpeLrhcpyZIuct4va2cFqSOIjDN
1fSKD5yVqmGE8EPSRdONt5Avwtg47QryeJysWZJ7JkhwH0dfHB5Jw7gsB5728Yr6
bepz/z6JLRcCAwEAAaOCASEwggEdMHEGCCsGAQUFBwEBBGUwYzAwBggrBgEFBQcw
AoYkaHR0cDovL3N1Yi1jYS5leGFtcGxlLmNvbS9zdWItY2EuY3J0MC8GCCsGAQUF
BzABhiNodHRwOi8vb2NzcC5zdWItY2EuZXhhbXBsZS5jb206OTA4MTAfBgNVHSME
GDAWgBRAN6H7kNqjnbpOVb4UxSIpnqu5CjAMBgNVHRMBAf8EAjAAMDUGA1UdHwQu
MCwwKqAooCaGJGh0dHA6Ly9zdWItY2EuZXhhbXBsZS5jb20vc3ViLWNhLmNybDAT
BgNVHSUEDDAKBggrBgEFBQcDAjAOBgNVHQ8BAf8EBAMCB4AwHQYDVR0OBBYEFOIz
F0YgXKV/VOHh+dveFhphPrlhMA0GCSqGSIb3DQEBCwUAA4IBAQCBNlpY/QkuaEZT
fH6MDHEvRXcqU/tirOwTuey/6ysR8eLDyYwCUSpEokxj+ORcHvj4pCpESJhO9/WB
wUKVk6PehzGnEjBuFvlslrekfDUtIoOnO6dpIKrconcWZDs669scU+0zfI2EJpgG
UK4uK1f5/C3YNpGuHCeP4pqsIPKBz4dRU/5Q9Q+gVyYwZ5JGJDp7/5YEmTdgnUdl
Rg3QnLwtQdQs9VcaZpj9kMbmI+SBAKH0FzcjQ3PVQa95lGJQH9eqGWyNJ57Sz5yD
BIj4Z/IC/oe5XnfNSFIBPLWjxh2wvJxKdEKi32tLIyXl6iqPgDvdtrAEfVrokoeO
S3MkOSPv
-----END CERTIFICATE-----
